	.arch armv6
	.eabi_attribute 28, 1
	.eabi_attribute 20, 1
	.eabi_attribute 21, 1
	.eabi_attribute 23, 3
	.eabi_attribute 24, 1
	.eabi_attribute 25, 1
	.eabi_attribute 26, 2
	.eabi_attribute 30, 2
	.eabi_attribute 34, 1
	.eabi_attribute 18, 4
	.file	"polymain.cc"
	.text
.Ltext0:
	.cfi_sections	.debug_frame
	.section	.text.startup,"ax",%progbits
	.align	2
	.global	main
	.arch armv6
	.syntax unified
	.arm
	.fpu vfp
	.type	main, %function
main:
	.fnstart
.LFB1483:
	.file 1 "polymain.cc"
	.loc 1 4 13 view -0
	.cfi_startproc
	@ args = 0, pretend = 0, frame = 16
	@ frame_needed = 0, uses_anonymous_args = 0
	.loc 1 5 2 view .LVU1
	.loc 1 6 2 view .LVU2
	.loc 1 4 13 is_stmt 0 view .LVU3
	push	{r4, lr}
	.save {r4, lr}
	.cfi_def_cfa_offset 8
	.cfi_offset 4, -8
	.cfi_offset 14, -4
	vpush.64	{d8, d9}
	.vsave {d8, d9}
	.cfi_def_cfa_offset 24
	.cfi_offset 80, -24
	.cfi_offset 81, -20
	.cfi_offset 82, -16
	.cfi_offset 83, -12
.LBB19:
.LBB20:
.LBB21:
	.file 2 "Polynomial.hh"
	.loc 2 10 41 view .LVU4
	mov	r3, #2
.LBB22:
	.loc 2 11 22 view .LVU5
	mov	r0, #16
.LBB23:
	.loc 2 13 12 view .LVU6
	vldr.64	d9, .L6
.LBE23:
.LBE22:
.LBE21:
.LBE20:
.LBE19:
	.loc 1 4 13 view .LVU7
	.pad #16
	sub	sp, sp, #16
	.cfi_def_cfa_offset 40
.LVL0:
.LBB29:
.LBI19:
	.loc 2 10 2 is_stmt 1 view .LVU8
.LBE29:
	.loc 1 10 9 is_stmt 0 view .LVU9
	vldr.64	d8, .L6+8
.LBB30:
.LBB28:
.LBB27:
	.loc 2 10 41 view .LVU10
	str	r3, [sp, #8]
.LBB26:
	.loc 2 11 3 is_stmt 1 view .LVU11
	.loc 2 11 22 is_stmt 0 view .LVU12
	bl	_Znaj
.LVL1:
.LBB24:
	.loc 2 13 12 view .LVU13
	ldr	r4, .L6+16
	ldr	r3, .L6+20
	mov	r2, #0
	vstr.64	d9, [r0, #8]
	strd	r2, [r0]
	strd	r2, [r0, #16]
.LBE24:
	.loc 2 11 8 view .LVU14
	str	r0, [sp, #12]
	.loc 2 12 3 is_stmt 1 view .LVU15
.LVL2:
.LBB25:
	.loc 2 13 4 view .LVU16
	.loc 2 13 4 view .LVU17
	.loc 2 13 4 view .LVU18
.L2:
	.loc 2 13 4 is_stmt 0 view .LVU19
.LBE25:
.LBE26:
.LBE27:
.LBE28:
.LBE30:
.LBB31:
	.loc 1 12 3 is_stmt 1 view .LVU20
	.loc 1 12 16 is_stmt 0 view .LVU21
	vmov.f64	d0, d9
	add	r0, sp, #8
.LVL3:
	.loc 1 12 16 view .LVU22
	bl	_ZNK10Polynomial4evalEd
.LVL4:
	.loc 1 11 20 view .LVU23
	subs	r4, r4, #1
.LVL5:
	.loc 1 12 7 view .LVU24
	vadd.f64	d8, d8, d0
.LVL6:
	.loc 1 11 20 view .LVU25
	bne	.L2
.LBE31:
	.loc 1 13 2 is_stmt 1 view .LVU26
.LVL7:
.LBB32:
.LBI32:
	.file 3 "/usr/include/c++/8/ostream"
	.loc 3 220 7 view .LVU27
.LBB33:
	.loc 3 221 29 is_stmt 0 view .LVU28
	vmov.f64	d0, d8
	ldr	r0, .L6+24
	bl	_ZNSo9_M_insertIdEERSoT_
.LVL8:
	.loc 3 221 29 view .LVU29
	mov	r3, #10
.LBE33:
.LBE32:
.LBB34:
.LBB35:
	.loc 3 509 30 view .LVU30
	mov	r2, #1
	add	r1, sp, #7
	strb	r3, [sp, #7]
.LVL9:
	.loc 3 509 30 view .LVU31
.LBE35:
.LBI34:
	.loc 3 508 5 is_stmt 1 view .LVU32
.LBB36:
	.loc 3 509 30 is_stmt 0 view .LVU33
	bl	_ZSt16__ostream_insertIcSt11char_traitsIcEERSt13basic_ostreamIT_T0_ES6_PKS3_i
.LVL10:
	.loc 3 509 30 view .LVU34
.LBE36:
.LBE34:
	.loc 1 14 1 view .LVU35
	mov	r0, r4
	add	sp, sp, #16
	.cfi_def_cfa_offset 24
	@ sp needed
	vldm	sp!, {d8-d9}
	.cfi_restore 82
	.cfi_restore 83
	.cfi_restore 80
	.cfi_restore 81
	.cfi_def_cfa_offset 8
.LVL11:
	.loc 1 14 1 view .LVU36
	pop	{r4, pc}
.L7:
	.align	3
.L6:
	.word	0
	.word	1073741824
	.word	0
	.word	0
	.word	1000000000
	.word	1072693248
	.word	_ZSt4cout
	.cfi_endproc
.LFE1483:
	.fnend
	.size	main, .-main
	.align	2
	.syntax unified
	.arm
	.fpu vfp
	.type	_GLOBAL__sub_I_main, %function
_GLOBAL__sub_I_main:
	.fnstart
.LFB1806:
	.loc 1 14 1 is_stmt 1 view -0
	.cfi_startproc
	@ args = 0, pretend = 0, frame = 0
	@ frame_needed = 0, uses_anonymous_args = 0
.LVL12:
.LBB37:
.LBI37:
	.loc 1 14 1 view .LVU38
.LBE37:
	push	{r4, lr}
	.cfi_def_cfa_offset 8
	.cfi_offset 4, -8
	.cfi_offset 14, -4
.LBB40:
.LBB38:
	.file 4 "/usr/include/c++/8/iostream"
	.loc 4 74 25 is_stmt 0 view .LVU39
	ldr	r4, .L10
	mov	r0, r4
	bl	_ZNSt8ios_base4InitC1Ev
.LVL13:
	mov	r0, r4
	ldr	r2, .L10+4
	ldr	r1, .L10+8
.LBE38:
.LBE40:
	.loc 1 14 1 view .LVU40
	pop	{r4, lr}
	.cfi_restore 14
	.cfi_restore 4
	.cfi_def_cfa_offset 0
.LBB41:
.LBB39:
	.loc 4 74 25 view .LVU41
	b	__aeabi_atexit
.LVL14:
.L11:
	.align	2
.L10:
	.word	.LANCHOR0
	.word	__dso_handle
	.word	_ZNSt8ios_base4InitD1Ev
.LBE39:
.LBE41:
	.cfi_endproc
.LFE1806:
	.cantunwind
	.fnend
	.size	_GLOBAL__sub_I_main, .-_GLOBAL__sub_I_main
	.section	.init_array,"aw"
	.align	2
	.word	_GLOBAL__sub_I_main
	.bss
	.align	2
	.set	.LANCHOR0,. + 0
	.type	_ZStL8__ioinit, %object
	.size	_ZStL8__ioinit, 1
_ZStL8__ioinit:
	.space	1
	.text
.Letext0:
	.file 5 "/usr/include/c++/8/cwchar"
	.file 6 "/usr/include/c++/8/new"
	.file 7 "/usr/include/c++/8/bits/exception_ptr.h"
	.file 8 "/usr/include/c++/8/type_traits"
	.file 9 "/usr/include/arm-linux-gnueabihf/c++/8/bits/c++config.h"
	.file 10 "/usr/include/c++/8/bits/stl_pair.h"
	.file 11 "/usr/include/c++/8/debug/debug.h"
	.file 12 "/usr/include/c++/8/bits/char_traits.h"
	.file 13 "/usr/include/c++/8/cstdint"
	.file 14 "/usr/include/c++/8/clocale"
	.file 15 "/usr/include/c++/8/cstdlib"
	.file 16 "/usr/include/c++/8/cstdio"
	.file 17 "/usr/include/c++/8/system_error"
	.file 18 "/usr/include/c++/8/bits/ios_base.h"
	.file 19 "/usr/include/c++/8/cwctype"
	.file 20 "/usr/include/c++/8/iosfwd"
	.file 21 "/usr/include/c++/8/bits/ostream.tcc"
	.file 22 "/usr/include/c++/8/bits/ostream_insert.h"
	.file 23 "/usr/include/c++/8/bits/predefined_ops.h"
	.file 24 "/usr/include/c++/8/ext/new_allocator.h"
	.file 25 "/usr/include/c++/8/ext/numeric_traits.h"
	.file 26 "/usr/lib/gcc/arm-linux-gnueabihf/8/include/stddef.h"
	.file 27 "/usr/lib/gcc/arm-linux-gnueabihf/8/include/stdarg.h"
	.file 28 "<built-in>"
	.file 29 "/usr/include/arm-linux-gnueabihf/bits/types/wint_t.h"
	.file 30 "/usr/include/arm-linux-gnueabihf/bits/types/__mbstate_t.h"
	.file 31 "/usr/include/arm-linux-gnueabihf/bits/types/mbstate_t.h"
	.file 32 "/usr/include/arm-linux-gnueabihf/bits/types/__FILE.h"
	.file 33 "/usr/include/arm-linux-gnueabihf/bits/types/struct_FILE.h"
	.file 34 "/usr/include/arm-linux-gnueabihf/bits/types/FILE.h"
	.file 35 "/usr/include/wchar.h"
	.file 36 "/usr/include/arm-linux-gnueabihf/bits/types/struct_tm.h"
	.file 37 "/usr/include/arm-linux-gnueabihf/bits/types.h"
	.file 38 "/usr/include/arm-linux-gnueabihf/bits/stdint-intn.h"
	.file 39 "/usr/include/arm-linux-gnueabihf/bits/stdint-uintn.h"
	.file 40 "/usr/include/stdint.h"
	.file 41 "/usr/include/locale.h"
	.file 42 "/usr/include/time.h"
	.file 43 "/usr/include/arm-linux-gnueabihf/c++/8/bits/atomic_word.h"
	.file 44 "/usr/include/stdlib.h"
	.file 45 "/usr/include/arm-linux-gnueabihf/bits/stdlib-float.h"
	.file 46 "/usr/include/arm-linux-gnueabihf/bits/stdlib-bsearch.h"
	.file 47 "/usr/include/arm-linux-gnueabihf/bits/types/__fpos_t.h"
	.file 48 "/usr/include/stdio.h"
	.file 49 "/usr/include/arm-linux-gnueabihf/bits/sys_errlist.h"
	.file 50 "/usr/include/arm-linux-gnueabihf/bits/stdio.h"
	.file 51 "/usr/include/errno.h"
	.file 52 "/usr/include/arm-linux-gnueabihf/bits/wctype-wchar.h"
	.file 53 "/usr/include/wctype.h"
	.section	.note.GNU-stack,"",%progbits
